target datalayout = "e-m:e-p270:32:32-p271:32:32-p272:64:64-i64:64-i128:128-f80:128-n8:16:32:64-S128"
target triple = "x86_64-pc-linux-gnu"

%union.pthread_mutex_t = type { %struct.__pthread_mutex_s }
%struct.__pthread_mutex_s = type { i32, i32, i32, i32, i32, i16, i16, %struct.__pthread_internal_list }
%struct.__pthread_internal_list = type { ptr, ptr }
%union.pthread_cond_t = type { %struct.__pthread_cond_s }
%struct.__pthread_cond_s = type { %union.__atomic_wide_counter, %union.__atomic_wide_counter, [2 x i32], [2 x i32], i32, i32, [2 x i32] }
%union.__atomic_wide_counter = type { i64 }
%struct.log_options_t = type { i32, i32, i32, i8, i8, i8, i32 }
%struct.slurmd_config = type { ptr, ptr, i32, [4096 x i8], ptr, ptr, ptr, ptr, i16, i16, i16, i16, ptr, i16, i64, i16, i16, i16, i16, i16, i16, i16, i16, i16, i16, i16, i64, i64, i32, i32, i16, ptr, ptr, ptr, i32, ptr, ptr, ptr, ptr, ptr, ptr, ptr, ptr, ptr, ptr, i32, ptr, ptr, i16, i32, i32, %struct.log_options_t, i32, i16, i64, i8, i8, i8, i8, i8, %union.pthread_mutex_t, i16, ptr, %union.pthread_cond_t, ptr, %union.pthread_cond_t, i8, i8, ptr, ptr }

@conf = dso_local global ptr null, align 8

; Function Attrs: nounwind uwtable
define internal void @_print_gres() #0 {
  %1 = alloca ptr, align 8
  %2 = alloca %struct.log_options_t, align 8
  call void @llvm.lifetime.start.p0(i64 8, ptr %1) #11
  %3 = load ptr, ptr @conf, align 8
  %4 = getelementptr inbounds nuw %struct.slurmd_config, ptr %3, i32 0, i32 51
  store ptr %4, ptr %1, align 8
  %5 = load ptr, ptr %1, align 8
  %6 = getelementptr inbounds nuw %struct.log_options_t, ptr %5, i32 0, i32 2
  store i32 0, ptr %6, align 4
  %7 = load ptr, ptr %1, align 8
  %8 = getelementptr inbounds nuw %struct.log_options_t, ptr %7, i32 0, i32 0
  store i32 3, ptr %8, align 4
  %9 = load ptr, ptr %1, align 8
  %10 = getelementptr inbounds nuw %struct.log_options_t, ptr %9, i32 0, i32 1
  store i32 3, ptr %10, align 4
  %11 = load ptr, ptr @conf, align 8
  %12 = getelementptr inbounds nuw %struct.slurmd_config, ptr %11, i32 0, i32 53
  %13 = load i16, ptr %12, align 4
  %14 = icmp ne i16 %13, 0
  br i1 %14, label %15, label %21

15:                                               ; preds = %0
  %16 = load ptr, ptr @conf, align 8
  %17 = getelementptr inbounds nuw %struct.slurmd_config, ptr %16, i32 0, i32 52
  %18 = load i32, ptr %17, align 8
  %19 = load ptr, ptr %1, align 8
  %20 = getelementptr inbounds nuw %struct.log_options_t, ptr %19, i32 0, i32 0
  store i32 %18, ptr %20, align 4
  br label %21

21:                                               ; preds = %15, %0
  %22 = load ptr, ptr @conf, align 8
  %23 = getelementptr inbounds nuw %struct.slurmd_config, ptr %22, i32 0, i32 51
  call void @llvm.lifetime.start.p0(i64 20, ptr %2) #11
  call void @llvm.memcpy.p0.p0.i64(ptr align 8 %2, ptr align 4 %23, i64 20, i1 false)
  %24 = call i32 @log_alter(ptr noundef byval(%struct.log_options_t) align 8 %2, i32 noundef 8, ptr noundef null)
  call void @llvm.lifetime.end.p0(i64 20, ptr %2) #11
  %25 = call i32 @_load_gres()
  call void @exit(i32 noundef 0) #13
  unreachable
}