; Function Attrs: noreturn nounwind uwtable
define internal fastcc void @_print_gres() unnamed_addr #14 {
  %1 = alloca %struct.log_options_t, align 8
  %2 = load ptr, ptr @conf, align 8
  %3 = getelementptr inbounds nuw i8, ptr %2, i64 4388
  %4 = getelementptr inbounds nuw i8, ptr %2, i64 4396
  store i32 0, ptr %4, align 4
  store i32 3, ptr %3, align 4
  %5 = getelementptr inbounds nuw i8, ptr %2, i64 4392
  store i32 3, ptr %5, align 4
  %6 = getelementptr inbounds nuw i8, ptr %2, i64 4412
  %7 = load i16, ptr %6, align 4
  %.not = icmp eq i16 %7, 0
  br i1 %.not, label %11, label %8

8:                                                ; preds = %0
  %9 = getelementptr inbounds nuw i8, ptr %2, i64 4408
  %10 = load i32, ptr %9, align 8
  store i32 %10, ptr %3, align 4
  br label %11

11:                                               ; preds = %8, %0
  call void @llvm.lifetime.start.p0(i64 20, ptr nonnull %1) #18
  call void @llvm.memcpy.p0.p0.i64(ptr noundef nonnull align 8 dereferenceable(20) %1, ptr noundef nonnull align 4 dereferenceable(20) %3, i64 20, i1 false)
  %12 = tail call i32 @log_alter(ptr noundef nonnull byval(%struct.log_options_t) align 8 %1, i32 noundef 8, ptr noundef null) #18
  call void @llvm.lifetime.end.p0(i64 20, ptr nonnull %1) #18
  %13 = tail call fastcc i32 @_load_gres()
  tail call void @exit(i32 noundef 0) #19
  unreachable
}